target datalayout = "e-m:e-p270:32:32-p271:32:32-p272:64:64-i64:64-i128:128-f80:128-n8:16:32:64-S128"
target triple = "x86_64-pc-linux-gnu"

%struct._funnel_menu_t = type { ptr, i32, ptr, ptr, ptr, i8, ptr }

@registered_menus = internal global ptr null, align 8
@menus_registered = internal global i8 0, align 1
@added_menus = internal global ptr null, align 8

; Function Attrs: nounwind null_pointer_is_valid sspstrong uwtable
define internal void @funnel_insert_menu(ptr noundef %0, ptr noundef %1) #0 {
  %3 = alloca ptr, align 8
  %4 = alloca ptr, align 8
  %5 = alloca ptr, align 8
  store ptr %0, ptr %3, align 8
  store ptr %1, ptr %4, align 8
  %6 = load ptr, ptr %3, align 8
  %7 = load ptr, ptr %6, align 8
  %8 = icmp ne ptr %7, null
  br i1 %8, label %12, label %9

9:                                                ; preds = %2
  %10 = load ptr, ptr %4, align 8
  %11 = load ptr, ptr %3, align 8
  store ptr %10, ptr %11, align 8
  br label %29

12:                                               ; preds = %2
  call void @llvm.lifetime.start.p0(i64 8, ptr %5) #8
  %13 = load ptr, ptr %3, align 8
  %14 = load ptr, ptr %13, align 8
  store ptr %14, ptr %5, align 8
  br label %15

15:                                               ; preds = %21, %12
  %16 = load ptr, ptr %5, align 8
  %17 = getelementptr inbounds nuw %struct._funnel_menu_t, ptr %16, i32 0, i32 6
  %18 = load ptr, ptr %17, align 8
  %19 = icmp ne ptr %18, null
  br i1 %19, label %20, label %25

20:                                               ; preds = %15
  br label %21

21:                                               ; preds = %20
  %22 = load ptr, ptr %5, align 8
  %23 = getelementptr inbounds nuw %struct._funnel_menu_t, ptr %22, i32 0, i32 6
  %24 = load ptr, ptr %23, align 8
  store ptr %24, ptr %5, align 8
  br label %15, !llvm.loop !8

25:                                               ; preds = %15
  %26 = load ptr, ptr %4, align 8
  %27 = load ptr, ptr %5, align 8
  %28 = getelementptr inbounds nuw %struct._funnel_menu_t, ptr %27, i32 0, i32 6
  store ptr %26, ptr %28, align 8
  call void @llvm.lifetime.end.p0(i64 8, ptr %5) #8
  br label %29

29:                                               ; preds = %25, %9
  ret void
}

; Function Attrs: null_pointer_is_valid sspstrong uwtable
define void @funnel_register_menu(ptr noundef %0, i32 noundef %1, ptr noundef %2, ptr noundef %3, ptr noundef %4, i1 noundef zeroext %5) #1 {
  %7 = alloca ptr, align 8
  %8 = alloca i32, align 4
  %9 = alloca ptr, align 8
  %10 = alloca ptr, align 8
  %11 = alloca ptr, align 8
  %12 = alloca i8, align 1
  %13 = alloca ptr, align 8
  %14 = alloca i64, align 8
  %15 = alloca i64, align 8
  %16 = alloca ptr, align 8
  %17 = alloca ptr, align 8
  %18 = alloca ptr, align 8
  store ptr %0, ptr %7, align 8
  store i32 %1, ptr %8, align 4
  store ptr %2, ptr %9, align 8
  store ptr %3, ptr %10, align 8
  store ptr %4, ptr %11, align 8
  %19 = zext i1 %5 to i8
  store i8 %19, ptr %12, align 1
  call void @llvm.lifetime.start.p0(i64 8, ptr %13) #8
  call void @llvm.lifetime.start.p0(i64 8, ptr %14) #8
  store i64 1, ptr %14, align 8
  call void @llvm.lifetime.start.p0(i64 8, ptr %15) #8
  store i64 56, ptr %15, align 8
  call void @llvm.lifetime.start.p0(i64 8, ptr %16) #8
  %20 = load i64, ptr %15, align 8
  %21 = icmp eq i64 %20, 1
  br i1 %21, label %22, label %25

22:                                               ; preds = %6
  %23 = load i64, ptr %14, align 8
  %24 = call noalias ptr @g_malloc(i64 noundef %23) #9
  store ptr %24, ptr %16, align 8
  br label %46

25:                                               ; preds = %6
  %26 = load i64, ptr %14, align 8
  %27 = call i1 @llvm.is.constant.i64(i64 %26)
  br i1 %27, label %28, label %41

28:                                               ; preds = %25
  %29 = load i64, ptr %15, align 8
  %30 = icmp eq i64 %29, 0
  br i1 %30, label %36, label %31

31:                                               ; preds = %28
  %32 = load i64, ptr %14, align 8
  %33 = load i64, ptr %15, align 8
  %34 = udiv i64 -1, %33
  %35 = icmp ule i64 %32, %34
  br i1 %35, label %36, label %41

36:                                               ; preds = %31, %28
  %37 = load i64, ptr %14, align 8
  %38 = load i64, ptr %15, align 8
  %39 = mul i64 %37, %38
  %40 = call noalias ptr @g_malloc(i64 noundef %39) #9
  store ptr %40, ptr %16, align 8
  br label %45

41:                                               ; preds = %31, %25
  %42 = load i64, ptr %14, align 8
  %43 = load i64, ptr %15, align 8
  %44 = call noalias ptr @g_malloc_n(i64 noundef %42, i64 noundef %43) #10
  store ptr %44, ptr %16, align 8
  br label %45

45:                                               ; preds = %41, %36
  br label %46

46:                                               ; preds = %45, %22
  %47 = load ptr, ptr %16, align 8
  store ptr %47, ptr %17, align 8
  call void @llvm.lifetime.end.p0(i64 8, ptr %16) #8
  call void @llvm.lifetime.end.p0(i64 8, ptr %15) #8
  call void @llvm.lifetime.end.p0(i64 8, ptr %14) #8
  %48 = load ptr, ptr %17, align 8
  store ptr %48, ptr %13, align 8
  %49 = load ptr, ptr %7, align 8
  %50 = call noalias ptr @g_strdup(ptr noundef %49)
  %51 = load ptr, ptr %13, align 8
  %52 = getelementptr inbounds nuw %struct._funnel_menu_t, ptr %51, i32 0, i32 0
  store ptr %50, ptr %52, align 8
  %53 = load i32, ptr %8, align 4
  %54 = load ptr, ptr %13, align 8
  %55 = getelementptr inbounds nuw %struct._funnel_menu_t, ptr %54, i32 0, i32 1
  store i32 %53, ptr %55, align 8
  %56 = load ptr, ptr %9, align 8
  %57 = load ptr, ptr %13, align 8
  %58 = getelementptr inbounds nuw %struct._funnel_menu_t, ptr %57, i32 0, i32 2
  store ptr %56, ptr %58, align 8
  %59 = load ptr, ptr %10, align 8
  %60 = load ptr, ptr %13, align 8
  %61 = getelementptr inbounds nuw %struct._funnel_menu_t, ptr %60, i32 0, i32 3
  store ptr %59, ptr %61, align 8
  %62 = load ptr, ptr %11, align 8
  %63 = load ptr, ptr %13, align 8
  %64 = getelementptr inbounds nuw %struct._funnel_menu_t, ptr %63, i32 0, i32 4
  store ptr %62, ptr %64, align 8
  %65 = load i8, ptr %12, align 1, !range !6, !noundef !7
  %66 = trunc i8 %65 to i1
  %67 = load ptr, ptr %13, align 8
  %68 = getelementptr inbounds nuw %struct._funnel_menu_t, ptr %67, i32 0, i32 5
  %69 = zext i1 %66 to i8
  store i8 %69, ptr %68, align 8
  %70 = load ptr, ptr %13, align 8
  %71 = getelementptr inbounds nuw %struct._funnel_menu_t, ptr %70, i32 0, i32 6
  store ptr null, ptr %71, align 8
  %72 = load ptr, ptr %13, align 8
  call void @funnel_insert_menu(ptr noundef @registered_menus, ptr noundef %72)
  %73 = load i8, ptr @menus_registered, align 1, !range !6, !noundef !7
  %74 = trunc i8 %73 to i1
  br i1 %74, label %75, label %83

75:                                               ; preds = %46
  call void @llvm.lifetime.start.p0(i64 8, ptr %18) #8
  %76 = load ptr, ptr %13, align 8
  %77 = call ptr @g_memdup2(ptr noundef %76, i64 noundef 56) #11
  store ptr %77, ptr %18, align 8
  %78 = load ptr, ptr %7, align 8
  %79 = call noalias ptr @g_strdup(ptr noundef %78)
  %80 = load ptr, ptr %18, align 8
  %81 = getelementptr inbounds nuw %struct._funnel_menu_t, ptr %80, i32 0, i32 0
  store ptr %79, ptr %81, align 8
  %82 = load ptr, ptr %18, align 8
  call void @funnel_insert_menu(ptr noundef @added_menus, ptr noundef %82)
  call void @llvm.lifetime.end.p0(i64 8, ptr %18) #8
  br label %83

83:                                               ; preds = %75, %46
  call void @llvm.lifetime.end.p0(i64 8, ptr %13) #8
  ret void
}