; Function Attrs: null_pointer_is_valid sspstrong uwtable
define void @funnel_register_menu(ptr noundef %0, i32 noundef %1, ptr noundef %2, ptr noundef %3, ptr noundef %4, i1 noundef zeroext %5) local_unnamed_addr #2 {
  %7 = zext i1 %5 to i8
  %8 = tail call noalias dereferenceable_or_null(56) ptr @g_malloc(i64 noundef 56) #6
  %9 = tail call noalias ptr @g_strdup(ptr noundef %0)
  store ptr %9, ptr %8, align 8
  %10 = getelementptr inbounds nuw i8, ptr %8, i64 8
  store i32 %1, ptr %10, align 8
  %11 = getelementptr inbounds nuw i8, ptr %8, i64 16
  store ptr %2, ptr %11, align 8
  %12 = getelementptr inbounds nuw i8, ptr %8, i64 24
  store ptr %3, ptr %12, align 8
  %13 = getelementptr inbounds nuw i8, ptr %8, i64 32
  store ptr %4, ptr %13, align 8
  %14 = getelementptr inbounds nuw i8, ptr %8, i64 40
  store i8 %7, ptr %14, align 8
  %15 = getelementptr inbounds nuw i8, ptr %8, i64 48
  store ptr null, ptr %15, align 8
  %16 = load ptr, ptr @registered_menus, align 8
  %.not.i = icmp eq ptr %16, null
  br i1 %.not.i, label %17, label %.preheader.i

17:                                               ; preds = %6
  store ptr %8, ptr @registered_menus, align 8
  br label %funnel_insert_menu.exit

.preheader.i:                                     ; preds = %6, %.preheader.i
  %.0.i = phi ptr [ %19, %.preheader.i ], [ %16, %6 ]
  %18 = getelementptr inbounds nuw i8, ptr %.0.i, i64 48
  %19 = load ptr, ptr %18, align 8
  %.not10.i = icmp eq ptr %19, null
  br i1 %.not10.i, label %20, label %.preheader.i, !llvm.loop !6

20:                                               ; preds = %.preheader.i
  %21 = getelementptr inbounds nuw i8, ptr %.0.i, i64 48
  store ptr %8, ptr %21, align 8
  br label %funnel_insert_menu.exit

funnel_insert_menu.exit:                          ; preds = %17, %20
  %.b29 = load i1, ptr @menus_registered, align 1
  br i1 %.b29, label %22, label %funnel_insert_menu.exit34

22:                                               ; preds = %funnel_insert_menu.exit
  %23 = tail call dereferenceable_or_null(56) ptr @g_memdup2(ptr noundef %8, i64 noundef 56) #7
  %24 = tail call noalias ptr @g_strdup(ptr noundef %0)
  store ptr %24, ptr %23, align 8
  %25 = load ptr, ptr @added_menus, align 8
  %.not.i30 = icmp eq ptr %25, null
  br i1 %.not.i30, label %26, label %.preheader.i31

26:                                               ; preds = %22
  store ptr %23, ptr @added_menus, align 8
  br label %funnel_insert_menu.exit34

.preheader.i31:                                   ; preds = %22, %.preheader.i31
  %.0.i32 = phi ptr [ %28, %.preheader.i31 ], [ %25, %22 ]
  %27 = getelementptr inbounds nuw i8, ptr %.0.i32, i64 48
  %28 = load ptr, ptr %27, align 8
  %.not10.i33 = icmp eq ptr %28, null
  br i1 %.not10.i33, label %29, label %.preheader.i31, !llvm.loop !6

29:                                               ; preds = %.preheader.i31
  %30 = getelementptr inbounds nuw i8, ptr %.0.i32, i64 48
  store ptr %23, ptr %30, align 8
  br label %funnel_insert_menu.exit34

funnel_insert_menu.exit34:                        ; preds = %29, %26, %funnel_insert_menu.exit
  ret void
}